; ModuleID = 'source-C-CXX/27/1716.c'
source_filename = "source-C-CXX/27/1716.c"
target datalayout = "e-m:e-p270:32:32-p271:32:32-p272:64:64-i64:64-f80:128-n8:16:32:64-S128"
target triple = "x86_64-pc-linux-gnu"

@.str = private unnamed_addr constant [4 x i8] c",%d\00", align 1
@.str.1 = private unnamed_addr constant [3 x i8] c"%d\00", align 1

; Function Attrs: nounwind sspstrong uwtable
define dso_local i32 @main() local_unnamed_addr #0 {
  %1 = alloca [1000 x i8], align 16
  %2 = alloca [1000 x [1000 x i8]], align 16
  %3 = getelementptr inbounds [1000 x i8], [1000 x i8]* %1, i64 0, i64 0
  call void @llvm.lifetime.start.p0i8(i64 1000, i8* nonnull %3) #5
  %4 = getelementptr inbounds [1000 x [1000 x i8]], [1000 x [1000 x i8]]* %2, i64 0, i64 0, i64 0
  call void @llvm.lifetime.start.p0i8(i64 1000000, i8* nonnull %4) #5
  %5 = call i32 (i8*, ...) bitcast (i32 (...)* @gets to i32 (i8*, ...)*)(i8* nonnull %3) #5
  %6 = call i64 @strlen(i8* noundef nonnull %3) #6
  %7 = trunc i64 %6 to i32
  %8 = icmp sgt i32 %7, 0
  br i1 %8, label %9, label %60

9:                                                ; preds = %0
  %10 = add i64 %6, 4294967295
  %11 = and i64 %10, 4294967295
  %12 = and i64 %6, 4294967295
  br label %24

13:                                               ; preds = %44
  %14 = icmp sgt i32 %46, 0
  br i1 %14, label %15, label %60

15:                                               ; preds = %13
  %16 = zext i32 %46 to i64
  %17 = call i64 @strlen(i8* noundef nonnull %4) #6
  %18 = trunc i64 %17 to i32
  %19 = icmp eq i32 %18, 0
  br i1 %19, label %22, label %20

20:                                               ; preds = %15
  %21 = call i32 (i8*, ...) @printf(i8* nonnull dereferenceable(1) getelementptr inbounds ([3 x i8], [3 x i8]* @.str.1, i64 0, i64 0), i32 %18)
  br label %22

22:                                               ; preds = %20, %15
  %23 = icmp eq i32 %46, 1
  br i1 %23, label %60, label %49

24:                                               ; preds = %9, %44
  %25 = phi i64 [ 0, %9 ], [ %47, %44 ]
  %26 = phi i32 [ 0, %9 ], [ %46, %44 ]
  %27 = phi i32 [ 0, %9 ], [ %45, %44 ]
  %28 = getelementptr inbounds [1000 x i8], [1000 x i8]* %1, i64 0, i64 %25
  %29 = load i8, i8* %28, align 1, !tbaa !5
  %30 = icmp eq i8 %29, 32
  %31 = sext i32 %26 to i64
  %32 = sext i32 %27 to i64
  %33 = getelementptr inbounds [1000 x [1000 x i8]], [1000 x [1000 x i8]]* %2, i64 0, i64 %31, i64 %32
  br i1 %30, label %40, label %34

34:                                               ; preds = %24
  store i8 %29, i8* %33, align 1, !tbaa !5
  %35 = add nsw i32 %27, 1
  %36 = icmp eq i64 %25, %11
  br i1 %36, label %37, label %44

37:                                               ; preds = %34
  %38 = sext i32 %35 to i64
  %39 = getelementptr inbounds [1000 x [1000 x i8]], [1000 x [1000 x i8]]* %2, i64 0, i64 %31, i64 %38
  br label %40

40:                                               ; preds = %24, %37
  %41 = phi i8* [ %39, %37 ], [ %33, %24 ]
  %42 = phi i32 [ %35, %37 ], [ 0, %24 ]
  store i8 0, i8* %41, align 1, !tbaa !5
  %43 = add nsw i32 %26, 1
  br label %44

44:                                               ; preds = %40, %34
  %45 = phi i32 [ %35, %34 ], [ %42, %40 ]
  %46 = phi i32 [ %26, %34 ], [ %43, %40 ]
  %47 = add nuw nsw i64 %25, 1
  %48 = icmp eq i64 %47, %12
  br i1 %48, label %13, label %24, !llvm.loop !8

49:                                               ; preds = %22, %57
  %50 = phi i64 [ %58, %57 ], [ 1, %22 ]
  %51 = getelementptr inbounds [1000 x [1000 x i8]], [1000 x [1000 x i8]]* %2, i64 0, i64 %50, i64 0
  %52 = call i64 @strlen(i8* noundef nonnull %51) #6
  %53 = trunc i64 %52 to i32
  %54 = icmp eq i32 %53, 0
  br i1 %54, label %57, label %55

55:                                               ; preds = %49
  %56 = call i32 (i8*, ...) @printf(i8* nonnull dereferenceable(1) getelementptr inbounds ([4 x i8], [4 x i8]* @.str, i64 0, i64 0), i32 %53)
  br label %57

57:                                               ; preds = %49, %55
  %58 = add nuw nsw i64 %50, 1
  %59 = icmp eq i64 %58, %16
  br i1 %59, label %60, label %49, !llvm.loop !10

60:                                               ; preds = %57, %0, %22, %13
  call void @llvm.lifetime.end.p0i8(i64 1000000, i8* nonnull %4) #5
  call void @llvm.lifetime.end.p0i8(i64 1000, i8* nonnull %3) #5
  ret i32 0
}

; Function Attrs: argmemonly mustprogress nofree nosync nounwind willreturn
declare void @llvm.lifetime.start.p0i8(i64 immarg, i8* nocapture) #1

declare i32 @gets(...) local_unnamed_addr #2

; Function Attrs: argmemonly mustprogress nofree nounwind readonly willreturn
declare i64 @strlen(i8* nocapture) local_unnamed_addr #3

; Function Attrs: nofree nounwind
declare noundef i32 @printf(i8* nocapture noundef readonly, ...) local_unnamed_addr #4

; Function Attrs: argmemonly mustprogress nofree nosync nounwind willreturn
declare void @llvm.lifetime.end.p0i8(i64 immarg, i8* nocapture) #1


!llvm.module.flags = !{!0, !1, !2, !3}
!llvm.ident = !{!4}

!0 = !{i32 1, !"wchar_size", i32 4}
!1 = !{i32 7, !"PIC Level", i32 2}
!2 = !{i32 7, !"PIE Level", i32 2}
!3 = !{i32 7, !"uwtable", i32 1}
!4 = !{!"clang version 13.0.0"}
!5 = !{!6, !6, i64 0}
!6 = !{!"omnipotent char", !7, i64 0}
!7 = !{!"Simple C/C++ TBAA"}
!8 = distinct !{!8, !9}
!9 = !{!"llvm.loop.mustprogress"}
!10 = distinct !{!10, !9, !11}
!11 = !{!"llvm.loop.peeled.count", i32 1}
